###############################################################################
#
# IAR ELF Linker V7.70.2.11706/W32 for ARM                22/Sep/2021  18:12:09
# Copyright 2007-2016 IAR Systems AB.
#
#    Output file  =  
#        D:\linfuliang_work\pro\NS3601\SVN_tmp\SDK_Make\N32WB452\projects\n32wb452_EVAL\examples\BLE\slave_ota_boot\EWARM\ota_boot_16bit\Exe\template_project.out
#    Map file     =  
#        D:\linfuliang_work\pro\NS3601\SVN_tmp\SDK_Make\N32WB452\projects\n32wb452_EVAL\examples\BLE\slave_ota_boot\EWARM\ota_boot_16bit\List\template_project.map
#    Command line =  
#        D:\linfuliang_work\pro\NS3601\SVN_tmp\SDK_Make\N32WB452\projects\n32wb452_EVAL\examples\BLE\slave_ota_boot\EWARM\ota_boot_16bit\Obj\bsp_spi.o
#        D:\linfuliang_work\pro\NS3601\SVN_tmp\SDK_Make\N32WB452\projects\n32wb452_EVAL\examples\BLE\slave_ota_boot\EWARM\ota_boot_16bit\Obj\CRC16.o
#        D:\linfuliang_work\pro\NS3601\SVN_tmp\SDK_Make\N32WB452\projects\n32wb452_EVAL\examples\BLE\slave_ota_boot\EWARM\ota_boot_16bit\Obj\log.o
#        D:\linfuliang_work\pro\NS3601\SVN_tmp\SDK_Make\N32WB452\projects\n32wb452_EVAL\examples\BLE\slave_ota_boot\EWARM\ota_boot_16bit\Obj\main.o
#        D:\linfuliang_work\pro\NS3601\SVN_tmp\SDK_Make\N32WB452\projects\n32wb452_EVAL\examples\BLE\slave_ota_boot\EWARM\ota_boot_16bit\Obj\misc.o
#        D:\linfuliang_work\pro\NS3601\SVN_tmp\SDK_Make\N32WB452\projects\n32wb452_EVAL\examples\BLE\slave_ota_boot\EWARM\ota_boot_16bit\Obj\n32wb452_flash.o
#        D:\linfuliang_work\pro\NS3601\SVN_tmp\SDK_Make\N32WB452\projects\n32wb452_EVAL\examples\BLE\slave_ota_boot\EWARM\ota_boot_16bit\Obj\n32wb452_flash_interface.o
#        D:\linfuliang_work\pro\NS3601\SVN_tmp\SDK_Make\N32WB452\projects\n32wb452_EVAL\examples\BLE\slave_ota_boot\EWARM\ota_boot_16bit\Obj\n32wb452_gpio.o
#        D:\linfuliang_work\pro\NS3601\SVN_tmp\SDK_Make\N32WB452\projects\n32wb452_EVAL\examples\BLE\slave_ota_boot\EWARM\ota_boot_16bit\Obj\n32wb452_it.o
#        D:\linfuliang_work\pro\NS3601\SVN_tmp\SDK_Make\N32WB452\projects\n32wb452_EVAL\examples\BLE\slave_ota_boot\EWARM\ota_boot_16bit\Obj\n32wb452_ota_iap.o
#        D:\linfuliang_work\pro\NS3601\SVN_tmp\SDK_Make\N32WB452\projects\n32wb452_EVAL\examples\BLE\slave_ota_boot\EWARM\ota_boot_16bit\Obj\n32wb452_ota_upgrade.o
#        D:\linfuliang_work\pro\NS3601\SVN_tmp\SDK_Make\N32WB452\projects\n32wb452_EVAL\examples\BLE\slave_ota_boot\EWARM\ota_boot_16bit\Obj\n32wb452_rcc.o
#        D:\linfuliang_work\pro\NS3601\SVN_tmp\SDK_Make\N32WB452\projects\n32wb452_EVAL\examples\BLE\slave_ota_boot\EWARM\ota_boot_16bit\Obj\n32wb452_spi.o
#        D:\linfuliang_work\pro\NS3601\SVN_tmp\SDK_Make\N32WB452\projects\n32wb452_EVAL\examples\BLE\slave_ota_boot\EWARM\ota_boot_16bit\Obj\n32wb452_tim.o
#        D:\linfuliang_work\pro\NS3601\SVN_tmp\SDK_Make\N32WB452\projects\n32wb452_EVAL\examples\BLE\slave_ota_boot\EWARM\ota_boot_16bit\Obj\n32wb452_usart.o
#        D:\linfuliang_work\pro\NS3601\SVN_tmp\SDK_Make\N32WB452\projects\n32wb452_EVAL\examples\BLE\slave_ota_boot\EWARM\ota_boot_16bit\Obj\n32wb452_w25qxx.o
#        D:\linfuliang_work\pro\NS3601\SVN_tmp\SDK_Make\N32WB452\projects\n32wb452_EVAL\examples\BLE\slave_ota_boot\EWARM\ota_boot_16bit\Obj\startup_n32wb452_EWARM.o
#        D:\linfuliang_work\pro\NS3601\SVN_tmp\SDK_Make\N32WB452\projects\n32wb452_EVAL\examples\BLE\slave_ota_boot\EWARM\ota_boot_16bit\Obj\system_n32wb452.o
#        -o
#        D:\linfuliang_work\pro\NS3601\SVN_tmp\SDK_Make\N32WB452\projects\n32wb452_EVAL\examples\BLE\slave_ota_boot\EWARM\ota_boot_16bit\Exe\template_project.out
#        --map
#        D:\linfuliang_work\pro\NS3601\SVN_tmp\SDK_Make\N32WB452\projects\n32wb452_EVAL\examples\BLE\slave_ota_boot\EWARM\ota_boot_16bit\List\template_project.map
#        --config "C:\Program Files (x86)\IAR Systems\Embedded Workbench
#        7.5\arm\config\linker\Nations\N32WB452\N32WB452xE.icf" --semihosting
#        --entry __iar_program_start --vfe
#
###############################################################################

*******************************************************************************
*** RUNTIME MODEL ATTRIBUTES
***

CppFlavor       = *
__SystemLibrary = DLib


*******************************************************************************
*** PLACEMENT SUMMARY
***

"A0":  place at 0x08000000 { ro section .intvec };
"P1":  place in [from 0x00000000 to 0x00000000] |
                [from 0x08000000 to 0x0807ffff] { ro };
"P3":  place in [from 0x00000000 to 0x00000000] |
                [from 0x20000000 to 0x20023fff] {
          rw, block CSTACK, block PROC_STACK, block HEAP };
initialize by copy { rw };

  Section            Kind        Address    Size  Object
  -------            ----        -------    ----  ------
"A0":                                      0x198
  .intvec            ro code  0x08000000   0x198  startup_n32wb452_EWARM.o [1]
                            - 0x08000198   0x198

"P1":                                     0x20dc
  .text              ro code  0x08000198   0x4d8  xprintfsmall_nomb.o [3]
  .text              ro code  0x08000670    0x16  strchr.o [5]
  .text              ro code  0x08000688    0x36  strlen.o [5]
  .text              ro code  0x080006c0    0x58  memchr.o [5]
  .text              ro code  0x08000718   0x3d0  n32wb452_w25qxx.o [1]
  .text              ro code  0x08000ae8   0x338  n32wb452_rcc.o [1]
  .text              ro code  0x08000e20    0xcc  n32wb452_gpio.o [1]
  .text              ro code  0x08000eec    0xe8  bsp_spi.o [1]
  .text              ro code  0x08000fd4    0x24  printf.o [3]
  .text              ro code  0x08000ff8    0x76  n32wb452_spi.o [1]
  .text              ro code  0x08001070   0x2c8  n32wb452_flash_interface.o [1]
  .text              ro code  0x08001338   0x1ae  n32wb452_flash.o [1]
  .text              ro code  0x080014e8   0x1e8  main.o [1]
  .text              ro code  0x080016d0    0x4e  CRC16.o [1]
  .text              ro code  0x08001720   0x1b0  system_n32wb452.o [1]
  .text              ro code  0x080018d0    0xd0  log.o [1]
  .text              ro code  0x080019a0   0x110  n32wb452_ota_upgrade.o [1]
  .text              ro code  0x08001ab0    0x34  n32wb452_ota_iap.o [1]
  .text              ro code  0x08001ae4    0xe6  n32wb452_usart.o [1]
  .text              ro code  0x08001bcc    0x6c  n32wb452_it.o [1]
  .text              ro code  0x08001c38    0x40  zero_init3.o [5]
  .rodata            const    0x08001c78    0x34  n32wb452_it.o [1]
  .rodata            const    0x08001cac    0x2c  main.o [1]
  .text              ro code  0x08001cd8    0x2c  copy_init3.o [5]
  .rodata            const    0x08001d04    0x28  n32wb452_w25qxx.o [1]
  .text              ro code  0x08001d2c    0x28  data_init.o [5]
  .rodata            const    0x08001d54    0x24  n32wb452_it.o [1]
  .rodata            const    0x08001d78    0x24  n32wb452_it.o [1]
  .rodata            const    0x08001d9c    0x24  n32wb452_it.o [1]
  .rodata            const    0x08001dc0    0x24  n32wb452_it.o [1]
  .text              ro code  0x08001de4    0x22  fpinit_M.o [4]
  .iar.init_table    const    0x08001e08    0x24  - Linker created -
  .rodata            const    0x08001e2c    0x20  n32wb452_rcc.o [1]
  .rodata            const    0x08001e4c    0x20  n32wb452_w25qxx.o [1]
  .rodata            const    0x08001e6c    0x1c  main.o [1]
  .rodata            const    0x08001e88    0x1c  main.o [1]
  .text              ro code  0x08001ea4    0x1a  cmain.o [5]
  .text              ro code  0x08001ebe     0x4  low_level_init.o [3]
  .text              ro code  0x08001ec2     0x4  exit.o [3]
  .text              ro code  0x08001ec8     0xa  cexit.o [5]
  .text              ro code  0x08001ed4    0x14  exit.o [6]
  .rodata            const    0x08001ee8    0x18  main.o [1]
  .rodata            const    0x08001f00    0x18  main.o [1]
  .rodata            const    0x08001f18    0x18  main.o [1]
  .rodata            const    0x08001f30    0x18  n32wb452_flash_interface.o [1]
  .rodata            const    0x08001f48    0x18  n32wb452_flash_interface.o [1]
  .rodata            const    0x08001f60    0x18  n32wb452_flash_interface.o [1]
  .rodata            const    0x08001f78    0x18  n32wb452_flash_interface.o [1]
  .rodata            const    0x08001f90    0x18  n32wb452_flash_interface.o [1]
  .rodata            const    0x08001fa8    0x18  n32wb452_flash_interface.o [1]
  .rodata            const    0x08001fc0    0x18  n32wb452_flash_interface.o [1]
  .rodata            const    0x08001fd8    0x18  n32wb452_flash_interface.o [1]
  .rodata            const    0x08001ff0    0x18  n32wb452_flash_interface.o [1]
  .text              ro code  0x08002008    0x16  xprout.o [3]
  .text              ro code  0x08002020     0xc  putchar.o [3]
  .rodata            const    0x0800202c    0x14  main.o [1]
  .rodata            const    0x08002040    0x14  n32wb452_ota_upgrade.o [1]
  .rodata            const    0x08002054    0x10  main.o [1]
  .rodata            const    0x08002064    0x10  n32wb452_it.o [1]
  .rodata            const    0x08002074    0x10  n32wb452_rcc.o [1]
  .rodata            const    0x08002084    0x10  n32wb452_rcc.o [1]
  .text              ro code  0x08002094    0x10  startup_n32wb452_EWARM.o [1]
  .rodata            const    0x080020a4     0xc  n32wb452_it.o [1]
  .text              ro code  0x080020b0     0xc  cstartup_M.o [5]
  .rodata            const    0x080020bc     0x8  n32wb452_w25qxx.o [1]
  .rodata            const    0x080020c4     0x8  n32wb452_w25qxx.o [1]
  .rodata            const    0x080020cc     0x8  n32wb452_w25qxx.o [1]
  .rodata            const    0x080020d4     0x8  n32wb452_w25qxx.o [1]
  .rodata            const    0x080020dc     0x8  n32wb452_w25qxx.o [1]
  .rodata            const    0x080020e4     0x8  n32wb452_w25qxx.o [1]
  .text              ro code  0x080020ec     0x4  startup_n32wb452_EWARM.o [1]
  .text              ro code  0x080020f0     0x4  startup_n32wb452_EWARM.o [1]
  .text              ro code  0x080020f4     0x4  startup_n32wb452_EWARM.o [1]
  .text              ro code  0x080020f8     0x4  startup_n32wb452_EWARM.o [1]
  .text              ro code  0x080020fc     0x4  startup_n32wb452_EWARM.o [1]
  .text              ro code  0x08002100     0x4  startup_n32wb452_EWARM.o [1]
  .text              ro code  0x08002104     0x4  startup_n32wb452_EWARM.o [1]
  .text              ro code  0x08002108     0x4  startup_n32wb452_EWARM.o [1]
  .text              ro code  0x0800210c     0x4  startup_n32wb452_EWARM.o [1]
  .text              ro code  0x08002110     0x4  startup_n32wb452_EWARM.o [1]
  .text              ro code  0x08002114     0x4  startup_n32wb452_EWARM.o [1]
  .text              ro code  0x08002118     0x4  startup_n32wb452_EWARM.o [1]
  .text              ro code  0x0800211c     0x4  startup_n32wb452_EWARM.o [1]
  .text              ro code  0x08002120     0x4  startup_n32wb452_EWARM.o [1]
  .text              ro code  0x08002124     0x4  startup_n32wb452_EWARM.o [1]
  .text              ro code  0x08002128     0x4  startup_n32wb452_EWARM.o [1]
  .text              ro code  0x0800212c     0x4  startup_n32wb452_EWARM.o [1]
  .text              ro code  0x08002130     0x4  startup_n32wb452_EWARM.o [1]
  .text              ro code  0x08002134     0x4  startup_n32wb452_EWARM.o [1]
  .text              ro code  0x08002138     0x4  startup_n32wb452_EWARM.o [1]
  .text              ro code  0x0800213c     0x4  startup_n32wb452_EWARM.o [1]
  .text              ro code  0x08002140     0x4  startup_n32wb452_EWARM.o [1]
  .text              ro code  0x08002144     0x4  startup_n32wb452_EWARM.o [1]
  .text              ro code  0x08002148     0x4  startup_n32wb452_EWARM.o [1]
  .text              ro code  0x0800214c     0x4  startup_n32wb452_EWARM.o [1]
  .text              ro code  0x08002150     0x4  startup_n32wb452_EWARM.o [1]
  .text              ro code  0x08002154     0x4  startup_n32wb452_EWARM.o [1]
  .text              ro code  0x08002158     0x4  startup_n32wb452_EWARM.o [1]
  .text              ro code  0x0800215c     0x4  startup_n32wb452_EWARM.o [1]
  .text              ro code  0x08002160     0x4  startup_n32wb452_EWARM.o [1]
  .text              ro code  0x08002164     0x4  startup_n32wb452_EWARM.o [1]
  .text              ro code  0x08002168     0x4  startup_n32wb452_EWARM.o [1]
  .text              ro code  0x0800216c     0x4  startup_n32wb452_EWARM.o [1]
  .text              ro code  0x08002170     0x4  startup_n32wb452_EWARM.o [1]
  .text              ro code  0x08002174     0x4  startup_n32wb452_EWARM.o [1]
  .text              ro code  0x08002178     0x4  startup_n32wb452_EWARM.o [1]
  .text              ro code  0x0800217c     0x4  startup_n32wb452_EWARM.o [1]
  .text              ro code  0x08002180     0x4  startup_n32wb452_EWARM.o [1]
  .text              ro code  0x08002184     0x4  startup_n32wb452_EWARM.o [1]
  .text              ro code  0x08002188     0x4  startup_n32wb452_EWARM.o [1]
  .text              ro code  0x0800218c     0x4  startup_n32wb452_EWARM.o [1]
  .text              ro code  0x08002190     0x4  startup_n32wb452_EWARM.o [1]
  .text              ro code  0x08002194     0x4  startup_n32wb452_EWARM.o [1]
  .text              ro code  0x08002198     0x4  startup_n32wb452_EWARM.o [1]
  .text              ro code  0x0800219c     0x4  startup_n32wb452_EWARM.o [1]
  .text              ro code  0x080021a0     0x4  startup_n32wb452_EWARM.o [1]
  .text              ro code  0x080021a4     0x4  startup_n32wb452_EWARM.o [1]
  .text              ro code  0x080021a8     0x4  startup_n32wb452_EWARM.o [1]
  .text              ro code  0x080021ac     0x4  startup_n32wb452_EWARM.o [1]
  .text              ro code  0x080021b0     0x4  startup_n32wb452_EWARM.o [1]
  .text              ro code  0x080021b4     0x4  startup_n32wb452_EWARM.o [1]
  .text              ro code  0x080021b8     0x4  startup_n32wb452_EWARM.o [1]
  .text              ro code  0x080021bc     0x4  startup_n32wb452_EWARM.o [1]
  .text              ro code  0x080021c0     0x4  startup_n32wb452_EWARM.o [1]
  .text              ro code  0x080021c4     0x4  startup_n32wb452_EWARM.o [1]
  .text              ro code  0x080021c8     0x4  startup_n32wb452_EWARM.o [1]
  .text              ro code  0x080021cc     0x4  startup_n32wb452_EWARM.o [1]
  .text              ro code  0x080021d0     0x4  startup_n32wb452_EWARM.o [1]
  .text              ro code  0x080021d4     0x4  startup_n32wb452_EWARM.o [1]
  .text              ro code  0x080021d8     0x4  startup_n32wb452_EWARM.o [1]
  .text              ro code  0x080021dc     0x4  startup_n32wb452_EWARM.o [1]
  .text              ro code  0x080021e0     0x4  startup_n32wb452_EWARM.o [1]
  .text              ro code  0x080021e4     0x4  startup_n32wb452_EWARM.o [1]
  .text              ro code  0x080021e8     0x4  startup_n32wb452_EWARM.o [1]
  .text              ro code  0x080021ec     0x4  startup_n32wb452_EWARM.o [1]
  .text              ro code  0x080021f0     0x4  startup_n32wb452_EWARM.o [1]
  .text              ro code  0x080021f4     0x4  startup_n32wb452_EWARM.o [1]
  .text              ro code  0x080021f8     0x4  startup_n32wb452_EWARM.o [1]
  .text              ro code  0x080021fc     0x4  startup_n32wb452_EWARM.o [1]
  .text              ro code  0x08002200     0x4  startup_n32wb452_EWARM.o [1]
  .text              ro code  0x08002204     0x4  startup_n32wb452_EWARM.o [1]
  .text              ro code  0x08002208     0x4  startup_n32wb452_EWARM.o [1]
  .text              ro code  0x0800220c     0x4  startup_n32wb452_EWARM.o [1]
  .text              ro code  0x08002210     0x4  startup_n32wb452_EWARM.o [1]
  .text              ro code  0x08002214     0x4  startup_n32wb452_EWARM.o [1]
  .text              ro code  0x08002218     0x4  startup_n32wb452_EWARM.o [1]
  .text              ro code  0x0800221c     0x4  startup_n32wb452_EWARM.o [1]
  .text              ro code  0x08002220     0x4  startup_n32wb452_EWARM.o [1]
  .text              ro code  0x08002224     0x4  startup_n32wb452_EWARM.o [1]
  .text              ro code  0x08002228     0x4  startup_n32wb452_EWARM.o [1]
  .rodata            const    0x0800222c     0x0  zero_init3.o [5]
  .rodata            const    0x0800222c     0x0  copy_init3.o [5]
  Initializer bytes  const    0x0800222c    0x48  <for P3 s0>
                            - 0x08002274  0x20dc

"P3", part 1 of 3:                          0x48
  P3 s0                       0x20000000    0x48  <Init block>
    .data            inited   0x20000000    0x40  xfiles.o [3]
    .data            inited   0x20000040     0x4  system_n32wb452.o [1]
    .data            inited   0x20000044     0x2  n32wb452_w25qxx.o [1]
                            - 0x20000048    0x48

"P3", part 2 of 3:                        0x1854
  .bss               zero     0x20000048  0x1000  n32wb452_w25qxx.o [1]
  .bss               zero     0x20001048   0x800  n32wb452_flash_interface.o [1]
  .bss               zero     0x20001848    0x50  xfiles.o [3]
  .bss               zero     0x20001898     0x4  log.o [1]
                            - 0x2000189c  0x1854

"P3", part 3 of 3:                        0x1500
  CSTACK                      0x200018a0  0x1500  <Block>
    CSTACK           uninit   0x200018a0  0x1500  <Block tail>
                            - 0x20002da0  0x1500


*******************************************************************************
*** INIT TABLE
***

          Address     Size
          -------     ----
Zero (__iar_zero_init3)
    1 destination range, total size 0x1854:
          0x20000048  0x1854

Copy (__iar_copy_init3)
    1 source range, total size 0x48 (102% of destination):
          0x0800222c    0x48
    1 destination range, total size 0x46:
          0x20000000    0x46



*******************************************************************************
*** MODULE SUMMARY
***

    Module                      ro code  ro data  rw data
    ------                      -------  -------  -------
D:\linfuliang_work\pro\NS3601\SVN_tmp\SDK_Make\N32WB452\projects\n32wb452_EVAL\examples\BLE\slave_ota_boot\EWARM\ota_boot_16bit\Obj: [1]
    CRC16.o                          78
    bsp_spi.o                       232
    log.o                           208                 4
    main.o                          488      208
    n32wb452_flash.o                430
    n32wb452_flash_interface.o      712      216    2 048
    n32wb452_gpio.o                 204
    n32wb452_it.o                   108      224
    n32wb452_ota_iap.o               52
    n32wb452_ota_upgrade.o          272       20
    n32wb452_rcc.o                  824       64
    n32wb452_spi.o                  118
    n32wb452_usart.o                230
    n32wb452_w25qxx.o               976      122    4 098
    startup_n32wb452_EWARM.o        744
    system_n32wb452.o               432        4        4
    -----------------------------------------------------
    Total:                        6 108      858    6 154

command line: [2]
    -----------------------------------------------------
    Total:

dl7M_tlf.a: [3]
    exit.o                            4
    low_level_init.o                  4
    printf.o                         36
    putchar.o                        12
    xfiles.o                                  64      144
    xprintfsmall_nomb.o           1 240
    xprout.o                         22
    -----------------------------------------------------
    Total:                        1 318       64      144

m7M_tls.a: [4]
    fpinit_M.o                       34
    -----------------------------------------------------
    Total:                           34

rt7M_tl.a: [5]
    cexit.o                          10
    cmain.o                          26
    copy_init3.o                     44
    cstartup_M.o                     12
    data_init.o                      40
    memchr.o                         88
    strchr.o                         22
    strlen.o                         54
    zero_init3.o                     64
    -----------------------------------------------------
    Total:                          360

shb_l.a: [6]
    exit.o                           20
    -----------------------------------------------------
    Total:                           20

    Gaps                             18        2
    Linker created                            38    5 376
---------------------------------------------------------
    Grand Total:                  7 858      962   11 674


*******************************************************************************
*** ENTRY LIST
***

Entry                      Address    Size  Type      Object
-----                      -------    ----  ----      ------
.iar.init_table$$Base   0x08001e08           --   Gb  - Linker created -
.iar.init_table$$Limit  0x08001e2c           --   Gb  - Linker created -
?main                   0x08001ea5          Code  Gb  cmain.o [5]
BusFault_Handler        0x08001c2f     0x2  Code  Gb  n32wb452_it.o [1]
CSTACK$$Base            0x200018a0           --   Gb  - Linker created -
CSTACK$$Limit           0x20002da0           --   Gb  - Linker created -
DebugMon_Handler        0x08001c35     0x2  Code  Gb  n32wb452_it.o [1]
FLASH_ClearFlag         0x08001451     0xc  Code  Gb  n32wb452_flash.o [1]
FLASH_EraseOnePage      0x08001397    0x5e  Code  Gb  n32wb452_flash.o [1]
FLASH_GetSTS            0x0800145d    0x44  Code  Gb  n32wb452_flash.o [1]
FLASH_Lock              0x08001385    0x12  Code  Gb  n32wb452_flash.o [1]
FLASH_PrefetchBufSet    0x0800134f    0x20  Code  Gb  n32wb452_flash.o [1]
FLASH_ProgramPage       0x08001071    0x32  Code  Gb  n32wb452_flash_interface.o [1]
FLASH_ProgramWord       0x080013f5    0x5c  Code  Gb  n32wb452_flash.o [1]
FLASH_SetLatency        0x08001339    0x16  Code  Gb  n32wb452_flash.o [1]
FLASH_Unlock            0x0800136f    0x16  Code  Gb  n32wb452_flash.o [1]
FLASH_WaitForLastOpt    0x080014c1    0x26  Code  Gb  n32wb452_flash.o [1]
GPIO_InitPeripheral     0x08000e21    0xc0  Code  Gb  n32wb452_gpio.o [1]
GPIO_ResetBits          0x08000ee7     0x6  Code  Gb  n32wb452_gpio.o [1]
GPIO_SetBits            0x08000ee1     0x6  Code  Gb  n32wb452_gpio.o [1]
HardFault_Handler       0x08001bcf    0x40  Code  Gb  n32wb452_it.o [1]
LoadInt                 0x08000521    0x4c  Code  Lc  xprintfsmall_nomb.o [3]
MemManage_Handler       0x08001c2d     0x2  Code  Gb  n32wb452_it.o [1]
N32WB452_FLASH_BUF      0x20001048   0x800  Data  Lc  n32wb452_flash_interface.o [1]
N32WB452_FLASH_Write    0x080010a3   0x26c  Code  Gb  n32wb452_flash_interface.o [1]
NMI_Handler             0x08001bcd     0x2  Code  Gb  n32wb452_it.o [1]
RCC_ConfigHclk          0x08000c31    0x16  Code  Gb  n32wb452_rcc.o [1]
RCC_ConfigHse           0x08000b5f    0x54  Code  Gb  n32wb452_rcc.o [1]
RCC_ConfigPclk1         0x08000c47    0x16  Code  Gb  n32wb452_rcc.o [1]
RCC_ConfigPclk2         0x08000c5d    0x18  Code  Gb  n32wb452_rcc.o [1]
RCC_ConfigPll           0x08000beb    0x1a  Code  Gb  n32wb452_rcc.o [1]
RCC_ConfigSysclk        0x08000c0f    0x16  Code  Gb  n32wb452_rcc.o [1]
RCC_Configuration       0x080014e9    0x1c  Code  Gb  main.o [1]
RCC_DeInit              0x08000ae9    0x76  Code  Gb  n32wb452_rcc.o [1]
RCC_EnableAPB1PeriphClk
                        0x08000d71    0x20  Code  Gb  n32wb452_rcc.o [1]
RCC_EnableAPB2PeriphClk
                        0x08000d51    0x20  Code  Gb  n32wb452_rcc.o [1]
RCC_EnablePll           0x08000c05     0xa  Code  Gb  n32wb452_rcc.o [1]
RCC_GetClocksFreqValue  0x08000c75    0xdc  Code  Gb  n32wb452_rcc.o [1]
RCC_GetFlagStatus       0x08000d91    0x3e  Code  Gb  n32wb452_rcc.o [1]
RCC_GetSysclkSrc        0x08000c25     0xc  Code  Gb  n32wb452_rcc.o [1]
RCC_WaitHseStable       0x08000bb3    0x38  Code  Gb  n32wb452_rcc.o [1]
Region$$Table$$Base     0x08001e08           --   Gb  - Linker created -
Region$$Table$$Limit    0x08001e2c           --   Gb  - Linker created -
SPI3_ReadWriteByte      0x08000f7b    0x52  Code  Gb  bsp_spi.o [1]
SPI_Configuration       0x08000eed    0x8e  Code  Gb  bsp_spi.o [1]
SPI_Enable              0x08001037    0x1c  Code  Gb  n32wb452_spi.o [1]
SPI_I2S_GetStatus       0x0800105b    0x14  Code  Gb  n32wb452_spi.o [1]
SPI_I2S_ReceiveData     0x08001057     0x4  Code  Gb  n32wb452_spi.o [1]
SPI_I2S_TransmitData    0x08001053     0x4  Code  Gb  n32wb452_spi.o [1]
SPI_Init                0x08000ff9    0x3e  Code  Gb  n32wb452_spi.o [1]
SVC_Handler             0x08001c33     0x2  Code  Gb  n32wb452_it.o [1]
SetSysClock             0x080017bd    0xd0  Code  Lc  system_n32wb452.o [1]
SetSysClock_HSE_PLL     0x08001505    0x7a  Code  Gb  main.o [1]
SysTick_Handler         0x08001c37     0x2  Code  Gb  n32wb452_it.o [1]
SystemCoreClock         0x20000040     0x4  Data  Gb  system_n32wb452.o [1]
SystemInit              0x08001721    0x9c  Code  Gb  system_n32wb452.o [1]
USART_Enable            0x08001b8d    0x1c  Code  Gb  n32wb452_usart.o [1]
USART_GetFlagStatus     0x08001bb1    0x1a  Code  Gb  n32wb452_usart.o [1]
USART_Init              0x08001ae5    0x9a  Code  Gb  n32wb452_usart.o [1]
USART_SendData          0x08001ba9     0x8  Code  Gb  n32wb452_usart.o [1]
UsageFault_Handler      0x08001c31     0x2  Code  Gb  n32wb452_it.o [1]
W25QXX_BUFFER           0x20000048  0x1000  Data  Lc  n32wb452_w25qxx.o [1]
W25QXX_Erase_Sector     0x08000a73    0x4c  Code  Gb  n32wb452_w25qxx.o [1]
W25QXX_Init             0x08000719    0xbe  Code  Gb  n32wb452_w25qxx.o [1]
W25QXX_Read             0x08000887    0x5a  Code  Gb  n32wb452_w25qxx.o [1]
W25QXX_ReadID           0x0800082f    0x58  Code  Gb  n32wb452_w25qxx.o [1]
W25QXX_ReadSR           0x080007d7    0x36  Code  Gb  n32wb452_w25qxx.o [1]
W25QXX_TYPE             0x20000044     0x2  Data  Gb  n32wb452_w25qxx.o [1]
W25QXX_Wait_Busy        0x08000abf     0xc  Code  Gb  n32wb452_w25qxx.o [1]
W25QXX_Write            0x08000997    0xdc  Code  Gb  n32wb452_w25qxx.o [1]
W25QXX_Write_Enable     0x0800080d    0x22  Code  Gb  n32wb452_w25qxx.o [1]
W25QXX_Write_NoCheck    0x08000943    0x54  Code  Gb  n32wb452_w25qxx.o [1]
W25QXX_Write_Page       0x080008e1    0x62  Code  Gb  n32wb452_w25qxx.o [1]
_LitobSmallNoMb         0x0800056d    0xce  Code  Lc  xprintfsmall_nomb.o [3]
_PrintfSmallNoMb        0x08000199   0x382  Code  Gb  xprintfsmall_nomb.o [3]
_Prout                  0x08002009    0x16  Code  Gb  xprout.o [3]
_PutcharsSmallNoMb      0x0800063b    0x2e  Code  Lc  xprintfsmall_nomb.o [3]
__cmain                 0x08001ea5          Code  Gb  cmain.o [5]
__exit                  0x08001ed5    0x14  Code  Gb  exit.o [6]
__iar_Memchr            0x080006c1          Code  Gb  memchr.o [5]
__iar_Stdout            0x20000000    0x40  Data  Gb  xfiles.o [3]
__iar_Strchr            0x08000671          Code  Gb  strchr.o [5]
__iar_copy_init3        0x08001cd9    0x2c  Code  Gb  copy_init3.o [5]
__iar_data_init3        0x08001d2d    0x28  Code  Gb  data_init.o [5]
__iar_init_vfp          0x08001de5          Code  Gb  fpinit_M.o [4]
__iar_program_start     0x080020b1          Code  Gb  cstartup_M.o [5]
__iar_zero_init3        0x08001c39    0x40  Code  Gb  zero_init3.o [5]
__low_level_init        0x08001ebf     0x4  Code  Gb  low_level_init.o [3]
__vector_table          0x08000000          Data  Gb  startup_n32wb452_EWARM.o [1]
_call_main              0x08001eb1          Code  Gb  cmain.o [5]
_exit                   0x08001ec9          Code  Gb  cexit.o [5]
_main                   0x08001ebb          Code  Gb  cmain.o [5]
cal_crc16               0x080016d1    0x4e  Code  Gb  CRC16.o [1]
check_app_image_data_crc
                        0x0800157f    0x1c  Code  Gb  main.o [1]
do_upgrade              0x0800159b    0x80  Code  Gb  main.o [1]
exit                    0x08001ec3     0x4  Code  Gb  exit.o [3]
fputc                   0x0800193b    0x5a  Code  Gb  log.o [1]
is_lr_sent              0x20001898     0x4  Data  Lc  log.o [1]
jump2app                0x08001ab1    0x30  Code  Gb  n32wb452_ota_iap.o [1]
log_init                0x080018d1    0x6a  Code  Gb  log.o [1]
main                    0x0800161b    0x8c  Code  Gb  main.o [1]
memchr                  0x080006c1          Code  Gb  memchr.o [5]
obuf                    0x20001848    0x50  Data  Lc  xfiles.o [3]
ota_check_upgrade_tag   0x08001a69    0x3a  Code  Gb  n32wb452_ota_upgrade.o [1]
ota_image_file_check_crc
                        0x080019c1    0x7e  Code  Gb  n32wb452_ota_upgrade.o [1]
ota_read_backup_image_info
                        0x080019b1    0x10  Code  Gb  n32wb452_ota_upgrade.o [1]
ota_upgrade_tag_clean   0x08001a3f    0x2a  Code  Gb  n32wb452_ota_upgrade.o [1]
ota_write_backup_image_info
                        0x080019a1    0x10  Code  Gb  n32wb452_ota_upgrade.o [1]
printf                  0x08000fd5    0x24  Code  Gb  printf.o [3]
putchar                 0x08002021     0xc  Code  Gb  putchar.o [3]
s_AdcHclkPresTable      0x08002084    0x10  Data  Lc  n32wb452_rcc.o [1]
s_AdcPllClkPresTable    0x08001e2c    0x20  Data  Lc  n32wb452_rcc.o [1]
s_ApbAhbPresTable       0x08002074    0x10  Data  Lc  n32wb452_rcc.o [1]
spi_flash_string        0x08001d04    0x28  Data  Gb  n32wb452_w25qxx.o [1]
strchr                  0x08000671          Code  Gb  strchr.o [5]
strlen                  0x08000689          Code  Gb  strlen.o [5]


[1] = D:\linfuliang_work\pro\NS3601\SVN_tmp\SDK_Make\N32WB452\projects\n32wb452_EVAL\examples\BLE\slave_ota_boot\EWARM\ota_boot_16bit\Obj
[2] = command line
[3] = dl7M_tlf.a
[4] = m7M_tls.a
[5] = rt7M_tl.a
[6] = shb_l.a

   7 858 bytes of readonly  code memory
     962 bytes of readonly  data memory
  11 674 bytes of readwrite data memory

Errors: none
Warnings: none
